; Function Attrs: mustprogress uwtable
define void @_ZN32pxrInternal_v0_24__pxrReserved__20HdSceneIndexPrimViewC2ERKNS_8TfRefPtrINS_16HdSceneIndexBaseEEE(ptr noundef nonnull align 8 dereferenceable(80) %0, ptr noundef nonnull align 8 dereferenceable(8) %1) unnamed_addr #0 align 2 personality ptr @__gxx_personality_v0 {
  %3 = tail call noundef nonnull align 4 dereferenceable(8) ptr @_ZN32pxrInternal_v0_24__pxrReserved__7SdfPath16AbsoluteRootPathEv()
  tail call void @_ZN32pxrInternal_v0_24__pxrReserved__20HdSceneIndexPrimView14const_iteratorC1ERKNS_8TfRefPtrINS_16HdSceneIndexBaseEEERKNS_7SdfPathE(ptr noundef nonnull align 8 dereferenceable(33) %0, ptr noundef nonnull align 8 dereferenceable(8) %1, ptr noundef nonnull align 4 dereferenceable(8) %3)
  %4 = getelementptr inbounds nuw i8, ptr %0, i64 40
  invoke void @_ZN32pxrInternal_v0_24__pxrReserved__20HdSceneIndexPrimView14const_iteratorC1ERKNS_8TfRefPtrINS_16HdSceneIndexBaseEEE(ptr noundef nonnull align 8 dereferenceable(33) %4, ptr noundef nonnull align 8 dereferenceable(8) %1)
          to label %_ZN32pxrInternal_v0_24__pxrReserved__20HdSceneIndexPrimViewC2ERKNS_8TfRefPtrINS_16HdSceneIndexBaseEEERKNS_7SdfPathE.exit unwind label %5

5:                                                ; preds = %2
  %6 = landingpad { ptr, i32 }
          cleanup
  tail call void @_ZN32pxrInternal_v0_24__pxrReserved__20HdSceneIndexPrimView14const_iteratorD2Ev(ptr noundef nonnull align 8 dereferenceable(33) %0) #17
  resume { ptr, i32 } %6

_ZN32pxrInternal_v0_24__pxrReserved__20HdSceneIndexPrimViewC2ERKNS_8TfRefPtrINS_16HdSceneIndexBaseEEERKNS_7SdfPathE.exit: ; preds = %2
  ret void
}